target datalayout = "e-m:e-p270:32:32-p271:32:32-p272:64:64-i64:64-i128:128-f80:128-n8:16:32:64-S128"
target triple = "x86_64-pc-linux-gnu"

%struct.DES_cblock_st = type { [8 x i8] }

; Function Attrs: nounwind uwtable
define hidden void @DES_ecb_encrypt(ptr noundef %0, ptr noundef %1, ptr noundef %2, i32 noundef %3) #0 {
  %5 = alloca ptr, align 8
  %6 = alloca ptr, align 8
  %7 = alloca ptr, align 8
  %8 = alloca i32, align 4
  %9 = alloca i32, align 4
  %10 = alloca [2 x i32], align 4
  %11 = alloca ptr, align 8
  %12 = alloca ptr, align 8
  store ptr %0, ptr %5, align 8, !tbaa !6
  store ptr %1, ptr %6, align 8, !tbaa !6
  store ptr %2, ptr %7, align 8, !tbaa !11
  store i32 %3, ptr %8, align 4, !tbaa !16
  call void @llvm.lifetime.start.p0(i64 4, ptr %9) #2
  call void @llvm.lifetime.start.p0(i64 8, ptr %10) #2
  call void @llvm.lifetime.start.p0(i64 8, ptr %11) #2
  %13 = load ptr, ptr %5, align 8, !tbaa !6
  %14 = getelementptr inbounds nuw %struct.DES_cblock_st, ptr %13, i32 0, i32 0
  %15 = getelementptr inbounds [8 x i8], ptr %14, i64 0, i64 0
  store ptr %15, ptr %11, align 8, !tbaa !13
  call void @llvm.lifetime.start.p0(i64 8, ptr %12) #2
  %16 = load ptr, ptr %6, align 8, !tbaa !6
  %17 = getelementptr inbounds nuw %struct.DES_cblock_st, ptr %16, i32 0, i32 0
  %18 = getelementptr inbounds [8 x i8], ptr %17, i64 0, i64 0
  store ptr %18, ptr %12, align 8, !tbaa !13
  %19 = load ptr, ptr %11, align 8, !tbaa !13
  %20 = getelementptr inbounds nuw i8, ptr %19, i32 1
  store ptr %20, ptr %11, align 8, !tbaa !13
  %21 = load i8, ptr %19, align 1, !tbaa !15
  %22 = zext i8 %21 to i32
  store i32 %22, ptr %9, align 4, !tbaa !16
  %23 = load ptr, ptr %11, align 8, !tbaa !13
  %24 = getelementptr inbounds nuw i8, ptr %23, i32 1
  store ptr %24, ptr %11, align 8, !tbaa !13
  %25 = load i8, ptr %23, align 1, !tbaa !15
  %26 = zext i8 %25 to i32
  %27 = shl i32 %26, 8
  %28 = load i32, ptr %9, align 4, !tbaa !16
  %29 = or i32 %28, %27
  store i32 %29, ptr %9, align 4, !tbaa !16
  %30 = load ptr, ptr %11, align 8, !tbaa !13
  %31 = getelementptr inbounds nuw i8, ptr %30, i32 1
  store ptr %31, ptr %11, align 8, !tbaa !13
  %32 = load i8, ptr %30, align 1, !tbaa !15
  %33 = zext i8 %32 to i32
  %34 = shl i32 %33, 16
  %35 = load i32, ptr %9, align 4, !tbaa !16
  %36 = or i32 %35, %34
  store i32 %36, ptr %9, align 4, !tbaa !16
  %37 = load ptr, ptr %11, align 8, !tbaa !13
  %38 = getelementptr inbounds nuw i8, ptr %37, i32 1
  store ptr %38, ptr %11, align 8, !tbaa !13
  %39 = load i8, ptr %37, align 1, !tbaa !15
  %40 = zext i8 %39 to i32
  %41 = shl i32 %40, 24
  %42 = load i32, ptr %9, align 4, !tbaa !16
  %43 = or i32 %42, %41
  store i32 %43, ptr %9, align 4, !tbaa !16
  %44 = load i32, ptr %9, align 4, !tbaa !16
  %45 = getelementptr inbounds [2 x i32], ptr %10, i64 0, i64 0
  store i32 %44, ptr %45, align 4, !tbaa !16
  %46 = load ptr, ptr %11, align 8, !tbaa !13
  %47 = getelementptr inbounds nuw i8, ptr %46, i32 1
  store ptr %47, ptr %11, align 8, !tbaa !13
  %48 = load i8, ptr %46, align 1, !tbaa !15
  %49 = zext i8 %48 to i32
  store i32 %49, ptr %9, align 4, !tbaa !16
  %50 = load ptr, ptr %11, align 8, !tbaa !13
  %51 = getelementptr inbounds nuw i8, ptr %50, i32 1
  store ptr %51, ptr %11, align 8, !tbaa !13
  %52 = load i8, ptr %50, align 1, !tbaa !15
  %53 = zext i8 %52 to i32
  %54 = shl i32 %53, 8
  %55 = load i32, ptr %9, align 4, !tbaa !16
  %56 = or i32 %55, %54
  store i32 %56, ptr %9, align 4, !tbaa !16
  %57 = load ptr, ptr %11, align 8, !tbaa !13
  %58 = getelementptr inbounds nuw i8, ptr %57, i32 1
  store ptr %58, ptr %11, align 8, !tbaa !13
  %59 = load i8, ptr %57, align 1, !tbaa !15
  %60 = zext i8 %59 to i32
  %61 = shl i32 %60, 16
  %62 = load i32, ptr %9, align 4, !tbaa !16
  %63 = or i32 %62, %61
  store i32 %63, ptr %9, align 4, !tbaa !16
  %64 = load ptr, ptr %11, align 8, !tbaa !13
  %65 = getelementptr inbounds nuw i8, ptr %64, i32 1
  store ptr %65, ptr %11, align 8, !tbaa !13
  %66 = load i8, ptr %64, align 1, !tbaa !15
  %67 = zext i8 %66 to i32
  %68 = shl i32 %67, 24
  %69 = load i32, ptr %9, align 4, !tbaa !16
  %70 = or i32 %69, %68
  store i32 %70, ptr %9, align 4, !tbaa !16
  %71 = load i32, ptr %9, align 4, !tbaa !16
  %72 = getelementptr inbounds [2 x i32], ptr %10, i64 0, i64 1
  store i32 %71, ptr %72, align 4, !tbaa !16
  %73 = getelementptr inbounds [2 x i32], ptr %10, i64 0, i64 0
  %74 = load ptr, ptr %7, align 8, !tbaa !11
  %75 = load i32, ptr %8, align 4, !tbaa !16
  call void @DES_encrypt1(ptr noundef %73, ptr noundef %74, i32 noundef %75)
  %76 = getelementptr inbounds [2 x i32], ptr %10, i64 0, i64 0
  %77 = load i32, ptr %76, align 4, !tbaa !16
  store i32 %77, ptr %9, align 4, !tbaa !16
  %78 = load i32, ptr %9, align 4, !tbaa !16
  %79 = and i32 %78, 255
  %80 = trunc i32 %79 to i8
  %81 = load ptr, ptr %12, align 8, !tbaa !13
  %82 = getelementptr inbounds nuw i8, ptr %81, i32 1
  store ptr %82, ptr %12, align 8, !tbaa !13
  store i8 %80, ptr %81, align 1, !tbaa !15
  %83 = load i32, ptr %9, align 4, !tbaa !16
  %84 = lshr i32 %83, 8
  %85 = and i32 %84, 255
  %86 = trunc i32 %85 to i8
  %87 = load ptr, ptr %12, align 8, !tbaa !13
  %88 = getelementptr inbounds nuw i8, ptr %87, i32 1
  store ptr %88, ptr %12, align 8, !tbaa !13
  store i8 %86, ptr %87, align 1, !tbaa !15
  %89 = load i32, ptr %9, align 4, !tbaa !16
  %90 = lshr i32 %89, 16
  %91 = and i32 %90, 255
  %92 = trunc i32 %91 to i8
  %93 = load ptr, ptr %12, align 8, !tbaa !13
  %94 = getelementptr inbounds nuw i8, ptr %93, i32 1
  store ptr %94, ptr %12, align 8, !tbaa !13
  store i8 %92, ptr %93, align 1, !tbaa !15
  %95 = load i32, ptr %9, align 4, !tbaa !16
  %96 = lshr i32 %95, 24
  %97 = and i32 %96, 255
  %98 = trunc i32 %97 to i8
  %99 = load ptr, ptr %12, align 8, !tbaa !13
  %100 = getelementptr inbounds nuw i8, ptr %99, i32 1
  store ptr %100, ptr %12, align 8, !tbaa !13
  store i8 %98, ptr %99, align 1, !tbaa !15
  %101 = getelementptr inbounds [2 x i32], ptr %10, i64 0, i64 1
  %102 = load i32, ptr %101, align 4, !tbaa !16
  store i32 %102, ptr %9, align 4, !tbaa !16
  %103 = load i32, ptr %9, align 4, !tbaa !16
  %104 = and i32 %103, 255
  %105 = trunc i32 %104 to i8
  %106 = load ptr, ptr %12, align 8, !tbaa !13
  %107 = getelementptr inbounds nuw i8, ptr %106, i32 1
  store ptr %107, ptr %12, align 8, !tbaa !13
  store i8 %105, ptr %106, align 1, !tbaa !15
  %108 = load i32, ptr %9, align 4, !tbaa !16
  %109 = lshr i32 %108, 8
  %110 = and i32 %109, 255
  %111 = trunc i32 %110 to i8
  %112 = load ptr, ptr %12, align 8, !tbaa !13
  %113 = getelementptr inbounds nuw i8, ptr %112, i32 1
  store ptr %113, ptr %12, align 8, !tbaa !13
  store i8 %111, ptr %112, align 1, !tbaa !15
  %114 = load i32, ptr %9, align 4, !tbaa !16
  %115 = lshr i32 %114, 16
  %116 = and i32 %115, 255
  %117 = trunc i32 %116 to i8
  %118 = load ptr, ptr %12, align 8, !tbaa !13
  %119 = getelementptr inbounds nuw i8, ptr %118, i32 1
  store ptr %119, ptr %12, align 8, !tbaa !13
  store i8 %117, ptr %118, align 1, !tbaa !15
  %120 = load i32, ptr %9, align 4, !tbaa !16
  %121 = lshr i32 %120, 24
  %122 = and i32 %121, 255
  %123 = trunc i32 %122 to i8
  %124 = load ptr, ptr %12, align 8, !tbaa !13
  %125 = getelementptr inbounds nuw i8, ptr %124, i32 1
  store ptr %125, ptr %12, align 8, !tbaa !13
  store i8 %123, ptr %124, align 1, !tbaa !15
  %126 = getelementptr inbounds [2 x i32], ptr %10, i64 0, i64 1
  store i32 0, ptr %126, align 4, !tbaa !16
  %127 = getelementptr inbounds [2 x i32], ptr %10, i64 0, i64 0
  store i32 0, ptr %127, align 4, !tbaa !16
  call void @llvm.lifetime.end.p0(i64 8, ptr %12) #2
  call void @llvm.lifetime.end.p0(i64 8, ptr %11) #2
  call void @llvm.lifetime.end.p0(i64 8, ptr %10) #2
  call void @llvm.lifetime.end.p0(i64 4, ptr %9) #2
  ret void
}