; Function Attrs: mustprogress nofree norecurse nosync nounwind willreturn memory(argmem: readwrite) uwtable
define hidden void @DES_ecb_encrypt(ptr noundef readonly captures(none) %0, ptr noundef writeonly captures(none) initializes((0, 8)) %1, ptr noundef %2, i32 noundef %3) local_unnamed_addr #2 {
  %5 = alloca [2 x i32], align 4
  call void @llvm.lifetime.start.p0(i64 8, ptr nonnull %5) #5
  %6 = load i32, ptr %0, align 1
  %7 = getelementptr inbounds nuw i8, ptr %0, i64 4
  store i32 %6, ptr %5, align 4, !tbaa !9
  %8 = load i32, ptr %7, align 1
  %9 = getelementptr inbounds nuw i8, ptr %5, i64 4
  store i32 %8, ptr %9, align 4, !tbaa !9
  call fastcc void @DES_encrypt1(ptr noundef %5, ptr noundef %2, i32 noundef %3)
  %10 = load i32, ptr %5, align 4, !tbaa !9
  %11 = trunc i32 %10 to i8
  %12 = getelementptr inbounds nuw i8, ptr %1, i64 1
  store i8 %11, ptr %1, align 1, !tbaa !6
  %13 = lshr i32 %10, 8
  %14 = trunc i32 %13 to i8
  %15 = getelementptr inbounds nuw i8, ptr %1, i64 2
  store i8 %14, ptr %12, align 1, !tbaa !6
  %16 = lshr i32 %10, 16
  %17 = trunc i32 %16 to i8
  %18 = getelementptr inbounds nuw i8, ptr %1, i64 3
  store i8 %17, ptr %15, align 1, !tbaa !6
  %19 = lshr i32 %10, 24
  %20 = trunc nuw i32 %19 to i8
  %21 = getelementptr inbounds nuw i8, ptr %1, i64 4
  store i8 %20, ptr %18, align 1, !tbaa !6
  %22 = load i32, ptr %9, align 4, !tbaa !9
  %23 = trunc i32 %22 to i8
  %24 = getelementptr inbounds nuw i8, ptr %1, i64 5
  store i8 %23, ptr %21, align 1, !tbaa !6
  %25 = lshr i32 %22, 8
  %26 = trunc i32 %25 to i8
  %27 = getelementptr inbounds nuw i8, ptr %1, i64 6
  store i8 %26, ptr %24, align 1, !tbaa !6
  %28 = lshr i32 %22, 16
  %29 = trunc i32 %28 to i8
  %30 = getelementptr inbounds nuw i8, ptr %1, i64 7
  store i8 %29, ptr %27, align 1, !tbaa !6
  %31 = lshr i32 %22, 24
  %32 = trunc nuw i32 %31 to i8
  store i8 %32, ptr %30, align 1, !tbaa !6
  call void @llvm.lifetime.end.p0(i64 8, ptr nonnull %5) #5
  ret void
}